; Function Attrs: nounwind uwtable
define internal void @my_StartNamespaceDeclHandler(ptr noundef captures(none) %0, ptr noundef %1, ptr noundef %2) #0 {
  %4 = getelementptr i8, ptr %0, i64 72
  %.val = load ptr, ptr %4, align 8, !tbaa !36
  %5 = getelementptr i8, ptr %.val, i64 48
  %6 = load ptr, ptr %5, align 8, !tbaa !14
  %.not34 = icmp eq ptr %6, null
  br i1 %.not34, label %Py_DECREF.exit, label %7

7:                                                ; preds = %3
  %8 = tail call ptr @PyErr_Occurred() #8
  %.not19 = icmp eq ptr %8, null
  br i1 %.not19, label %9, label %Py_DECREF.exit

9:                                                ; preds = %7
  %10 = getelementptr inbounds nuw i8, ptr %0, i64 40
  %11 = load ptr, ptr %10, align 8, !tbaa !29
  %12 = icmp eq ptr %11, null
  br i1 %12, label %flush_character_buffer.exit.thread, label %13

13:                                               ; preds = %9
  %14 = getelementptr inbounds nuw i8, ptr %0, i64 52
  %15 = load i32, ptr %14, align 4, !tbaa !35
  %16 = icmp eq i32 %15, 0
  br i1 %16, label %flush_character_buffer.exit.thread, label %flush_character_buffer.exit

flush_character_buffer.exit:                      ; preds = %13
  %17 = tail call fastcc i32 @call_character_handler(ptr noundef nonnull %0, ptr noundef nonnull %11, i32 noundef %15)
  store i32 0, ptr %14, align 4, !tbaa !35
  %18 = icmp slt i32 %17, 0
  br i1 %18, label %Py_DECREF.exit, label %flush_character_buffer.exit.thread

flush_character_buffer.exit.thread:               ; preds = %9, %13, %flush_character_buffer.exit
  %19 = tail call fastcc ptr @string_intern(ptr noundef nonnull %0, ptr noundef %1)
  %20 = tail call fastcc ptr @string_intern(ptr noundef nonnull %0, ptr noundef %2)
  %21 = tail call ptr (ptr, ...) @Py_BuildValue(ptr noundef nonnull @.str.39, ptr noundef %19, ptr noundef %20) #8
  %.not20 = icmp eq ptr %21, null
  br i1 %.not20, label %22, label %45

22:                                               ; preds = %flush_character_buffer.exit.thread
  %23 = load ptr, ptr @handler_info, align 16, !tbaa !40
  %.not15.i.i = icmp eq ptr %23, null
  br i1 %.not15.i.i, label %flag_error.exit, label %.lr.ph.i.i

.lr.ph.i.i:                                       ; preds = %22
  %24 = getelementptr inbounds nuw i8, ptr %0, i64 16
  br label %.lr.ph.split.us.i.i

.lr.ph.split.us.i.i:                              ; preds = %Py_DECREF.exit.us.i.i, %.lr.ph.i.i
  %25 = phi ptr [ %41, %Py_DECREF.exit.us.i.i ], [ @handler_info, %.lr.ph.i.i ]
  %26 = phi i64 [ %40, %Py_DECREF.exit.us.i.i ], [ 0, %.lr.ph.i.i ]
  %.016.us.i.i = phi i32 [ %39, %Py_DECREF.exit.us.i.i ], [ 0, %.lr.ph.i.i ]
  %27 = load ptr, ptr %4, align 8, !tbaa !36
  %28 = getelementptr ptr, ptr %27, i64 %26
  %29 = load ptr, ptr %28, align 8, !tbaa !14
  %.not14.us.i.i = icmp eq ptr %29, null
  br i1 %.not14.us.i.i, label %Py_DECREF.exit.us.i.i, label %30

30:                                               ; preds = %.lr.ph.split.us.i.i
  store ptr null, ptr %28, align 8, !tbaa !14
  %31 = load i32, ptr %29, align 8, !tbaa !13
  %.not.i.us.i.i = icmp sgt i32 %31, -1
  br i1 %.not.i.us.i.i, label %32, label %Py_DECREF.exit.us.i.i

32:                                               ; preds = %30
  %33 = add nsw i32 %31, -1
  store i32 %33, ptr %29, align 8, !tbaa !13
  %34 = icmp eq i32 %33, 0
  br i1 %34, label %35, label %Py_DECREF.exit.us.i.i

35:                                               ; preds = %32
  tail call void @_Py_Dealloc(ptr noundef nonnull %29) #8
  br label %Py_DECREF.exit.us.i.i

Py_DECREF.exit.us.i.i:                            ; preds = %35, %32, %30, %.lr.ph.split.us.i.i
  %36 = getelementptr inbounds nuw i8, ptr %25, i64 8
  %37 = load ptr, ptr %36, align 8, !tbaa !56
  %38 = load ptr, ptr %24, align 8, !tbaa !39
  tail call void %37(ptr noundef %38, ptr noundef null) #8
  %39 = add i32 %.016.us.i.i, 1
  %40 = sext i32 %39 to i64
  %41 = getelementptr [64 x %struct.HandlerInfo], ptr @handler_info, i64 0, i64 %40
  %42 = load ptr, ptr %41, align 16, !tbaa !40
  %.not.us.i.i = icmp eq ptr %42, null
  br i1 %.not.us.i.i, label %flag_error.exit, label %.lr.ph.split.us.i.i, !llvm.loop !45

flag_error.exit:                                  ; preds = %Py_DECREF.exit.us.i.i, %22
  %43 = getelementptr inbounds nuw i8, ptr %0, i64 16
  %44 = load ptr, ptr %43, align 8, !tbaa !39
  tail call void @PyExpat_XML_SetExternalEntityRefHandler(ptr noundef %44, ptr noundef nonnull @error_external_entity_ref_handler) #8
  br label %Py_DECREF.exit

45:                                               ; preds = %flush_character_buffer.exit.thread
  %46 = getelementptr inbounds nuw i8, ptr %0, i64 32
  store i32 1, ptr %46, align 8, !tbaa !60
  %47 = load ptr, ptr %4, align 8, !tbaa !36
  %48 = getelementptr i8, ptr %47, i64 48
  %49 = load ptr, ptr %48, align 8, !tbaa !14
  %50 = tail call ptr @PyObject_Call(ptr noundef %49, ptr noundef nonnull %21, ptr noundef null) #8
  %51 = icmp eq ptr %50, null
  br i1 %51, label %52, label %call_with_frame.exit

52:                                               ; preds = %45
  tail call void @_PyTraceback_Add(ptr noundef nonnull @.str.52, ptr noundef nonnull @.str.43, i32 noundef 632) #8
  %53 = getelementptr inbounds nuw i8, ptr %0, i64 16
  %54 = load ptr, ptr %53, align 8, !tbaa !39
  %55 = tail call i32 @PyExpat_XML_StopParser(ptr noundef %54, i8 noundef zeroext 0) #8
  br label %call_with_frame.exit

call_with_frame.exit:                             ; preds = %45, %52
  store i32 0, ptr %46, align 8, !tbaa !60
  %56 = load i32, ptr %21, align 8, !tbaa !13
  %.not.i21 = icmp sgt i32 %56, -1
  br i1 %.not.i21, label %57, label %Py_DECREF.exit22

57:                                               ; preds = %call_with_frame.exit
  %58 = add nsw i32 %56, -1
  store i32 %58, ptr %21, align 8, !tbaa !13
  %59 = icmp eq i32 %58, 0
  br i1 %59, label %60, label %Py_DECREF.exit22

60:                                               ; preds = %57
  tail call void @_Py_Dealloc(ptr noundef nonnull %21) #8
  br label %Py_DECREF.exit22

Py_DECREF.exit22:                                 ; preds = %call_with_frame.exit, %57, %60
  br i1 %51, label %61, label %84

61:                                               ; preds = %Py_DECREF.exit22
  %62 = load ptr, ptr @handler_info, align 16, !tbaa !40
  %.not15.i.i24 = icmp eq ptr %62, null
  br i1 %.not15.i.i24, label %flag_error.exit32, label %.lr.ph.i.i25

.lr.ph.i.i25:                                     ; preds = %61
  %63 = getelementptr inbounds nuw i8, ptr %0, i64 16
  br label %.lr.ph.split.us.i.i26

.lr.ph.split.us.i.i26:                            ; preds = %Py_DECREF.exit.us.i.i30, %.lr.ph.i.i25
  %64 = phi ptr [ %80, %Py_DECREF.exit.us.i.i30 ], [ @handler_info, %.lr.ph.i.i25 ]
  %65 = phi i64 [ %79, %Py_DECREF.exit.us.i.i30 ], [ 0, %.lr.ph.i.i25 ]
  %.016.us.i.i27 = phi i32 [ %78, %Py_DECREF.exit.us.i.i30 ], [ 0, %.lr.ph.i.i25 ]
  %66 = load ptr, ptr %4, align 8, !tbaa !36
  %67 = getelementptr ptr, ptr %66, i64 %65
  %68 = load ptr, ptr %67, align 8, !tbaa !14
  %.not14.us.i.i28 = icmp eq ptr %68, null
  br i1 %.not14.us.i.i28, label %Py_DECREF.exit.us.i.i30, label %69

69:                                               ; preds = %.lr.ph.split.us.i.i26
  store ptr null, ptr %67, align 8, !tbaa !14
  %70 = load i32, ptr %68, align 8, !tbaa !13
  %.not.i.us.i.i29 = icmp sgt i32 %70, -1
  br i1 %.not.i.us.i.i29, label %71, label %Py_DECREF.exit.us.i.i30

71:                                               ; preds = %69
  %72 = add nsw i32 %70, -1
  store i32 %72, ptr %68, align 8, !tbaa !13
  %73 = icmp eq i32 %72, 0
  br i1 %73, label %74, label %Py_DECREF.exit.us.i.i30

74:                                               ; preds = %71
  tail call void @_Py_Dealloc(ptr noundef nonnull %68) #8
  br label %Py_DECREF.exit.us.i.i30

Py_DECREF.exit.us.i.i30:                          ; preds = %74, %71, %69, %.lr.ph.split.us.i.i26
  %75 = getelementptr inbounds nuw i8, ptr %64, i64 8
  %76 = load ptr, ptr %75, align 8, !tbaa !56
  %77 = load ptr, ptr %63, align 8, !tbaa !39
  tail call void %76(ptr noundef %77, ptr noundef null) #8
  %78 = add i32 %.016.us.i.i27, 1
  %79 = sext i32 %78 to i64
  %80 = getelementptr [64 x %struct.HandlerInfo], ptr @handler_info, i64 0, i64 %79
  %81 = load ptr, ptr %80, align 16, !tbaa !40
  %.not.us.i.i31 = icmp eq ptr %81, null
  br i1 %.not.us.i.i31, label %flag_error.exit32, label %.lr.ph.split.us.i.i26, !llvm.loop !45

flag_error.exit32:                                ; preds = %Py_DECREF.exit.us.i.i30, %61
  %82 = getelementptr inbounds nuw i8, ptr %0, i64 16
  %83 = load ptr, ptr %82, align 8, !tbaa !39
  tail call void @PyExpat_XML_SetExternalEntityRefHandler(ptr noundef %83, ptr noundef nonnull @error_external_entity_ref_handler) #8
  br label %Py_DECREF.exit

84:                                               ; preds = %Py_DECREF.exit22
  %85 = load i32, ptr %50, align 8, !tbaa !13
  %.not.i = icmp sgt i32 %85, -1
  br i1 %.not.i, label %86, label %Py_DECREF.exit

86:                                               ; preds = %84
  %87 = add nsw i32 %85, -1
  store i32 %87, ptr %50, align 8, !tbaa !13
  %88 = icmp eq i32 %87, 0
  br i1 %88, label %89, label %Py_DECREF.exit

89:                                               ; preds = %86
  tail call void @_Py_Dealloc(ptr noundef nonnull %50) #8
  br label %Py_DECREF.exit

Py_DECREF.exit:                                   ; preds = %89, %86, %84, %3, %flush_character_buffer.exit, %7, %flag_error.exit32, %flag_error.exit
  ret void
}